(lp0
(lp1
VADHD
p2
aF6606.181742164548
aI30699
aF4.647011117490286
aa(lp3
VDrugs
p4
aF3418.857494796221
aI18283
aF5.347692914322463
aa(lp5
VAskReddit
p6
aF2501.87877768519
aI17550
aF7.014728353960364
aa(lp7
VEpilepsy
p8
aF2341.1280430479005
aI8031
aF3.4303975913869666
aa(lp9
Vsteroids
p10
aF1380.7507851557323
aI6005
aF4.349083168779591
aa(lp11
Vmigraine
p12
aF1365.6398368895977
aI5111
aF3.742568034366142
aa(lp13
VBipolarReddit
p14
aF1328.630419084337
aI5458
aF4.107989642267512
aa(lp15
Vdiabetes
p16
aF1181.8827231088703
aI4857
aF4.109544800878346
aa(lp17
Vasktransgender
p18
aF1159.3603440116162
aI5061
aF4.365338202346941
aa(lp19
Vbipolar
p20
aF1156.678779372187
aI4841
aF4.185258765296585
aa(lp21
VNootropics
p22
aF1027.5078607171354
aI4944
aF4.811642021453151
aa(lp23
Vinfertility
p24
aF977.3940717144176
aI3472
aF3.552303109338354
aa(lp25
VIAmA
p26
aF825.6777944630664
aI5777
aF6.9966759900049755
aa(lp27
VAskDocs
p28
aF685.6464043358983
aI2797
aF4.079362164393046
aa(lp29
VMultipleSclerosis
p30
aF659.3595137447056
aI2317
aF3.5140161804006493
aa(lp31
Vdepression
p32
aF579.6053582454364
aI2947
aF5.084494058027808
aa(lp33
Vopiates
p34
aF573.657513687713
aI2451
aF4.272584149110043
aa(lp35
Vscience
p36
aF551.9832179469868
aI3865
aF7.002024471641092
aa(lp37
VAnxiety
p38
aF473.6185217999148
aI2302
aF4.860451806765497
aa(lp39
Vtrees
p40
aF403.87739441918166
aI2381
aF5.895353473358244
aa(lp41
VStims
p42
aF403.6435154998366
aI1483
aF3.674034000431255
aa(lp43
VAdviceAnimals
p44
aF373.1998498619117
aI2468
aF6.6130787590434155
aa(lp45
VChronicPain
p46
aF347.815693434273
aI1329
aF3.8209891764160497
aa(lp47
VCrohnsDisease
p48
aF345.2201734571093
aI1336
aF3.869994000121742
aa(lp49
Vtodayilearned
p50
aF316.5752371277057
aI2219
aF7.009392206835372
aa.